target datalayout = "e-m:e-p270:32:32-p271:32:32-p272:64:64-i64:64-i128:128-f80:128-n8:16:32:64-S128"
target triple = "x86_64-pc-linux-gnu"

%struct.Gia_Man_t_ = type { ptr, ptr, i32, i32, i32, i32, ptr, ptr, i32, i32, i32, ptr, ptr, %struct.Vec_Int_t_, %struct.Vec_Int_t_, i32, i32, i32, %struct.Vec_Int_t_, ptr, ptr, ptr, i32, i32, i32, i32, ptr, ptr, ptr, ptr, ptr, i32, i32, ptr, i32, ptr, ptr, ptr, ptr, ptr, ptr, ptr, ptr, ptr, ptr, ptr, ptr, ptr, ptr, ptr, ptr, ptr, ptr, %struct.Vec_Int_t_, %struct.Vec_Int_t_, ptr, ptr, ptr, ptr, ptr, ptr, ptr, ptr, ptr, ptr, ptr, ptr, ptr, ptr, ptr, ptr, ptr, ptr, ptr, ptr, ptr, i32, float, float, ptr, ptr, i32, ptr, ptr, ptr, ptr, ptr, ptr, ptr, ptr, ptr, ptr, ptr, ptr, ptr, ptr, ptr, i64, i64, ptr, ptr, i32, i32, i32, i32, i32, i32, i32, i32, i32, i32, i32, i32, ptr, ptr, ptr, ptr, ptr, ptr, ptr, ptr, i32, i32, i32, ptr, i32, i32, ptr, ptr, ptr, ptr, ptr, ptr, i32, i32, ptr, %struct.Vec_Int_t_, %struct.Vec_Int_t_, %struct.Vec_Int_t_, ptr, ptr, ptr, i32, i32, i32, i32, ptr, ptr, ptr, ptr, ptr }
%struct.Vec_Int_t_ = type { i32, i32, ptr }
%struct.Gia_Obj_t_ = type <{ i64, i32 }>
%struct.Vec_Str_t_ = type { i32, i32, ptr }

; Function Attrs: inlinehint nounwind uwtable
define internal ptr @Gia_ManObj(ptr noundef %0, i32 noundef %1) #2 {
  %3 = alloca ptr, align 8
  %4 = alloca i32, align 4
  store ptr %0, ptr %3, align 8, !tbaa !3
  store i32 %1, ptr %4, align 4, !tbaa !10
  %5 = load ptr, ptr %3, align 8, !tbaa !3
  %6 = getelementptr inbounds nuw %struct.Gia_Man_t_, ptr %5, i32 0, i32 6
  %7 = load ptr, ptr %6, align 8, !tbaa !42
  %8 = load i32, ptr %4, align 4, !tbaa !10
  %9 = sext i32 %8 to i64
  %10 = getelementptr inbounds %struct.Gia_Obj_t_, ptr %7, i64 %9
  ret ptr %10
}

; Function Attrs: inlinehint nounwind uwtable
define internal i32 @Vec_IntEntry(ptr noundef %0, i32 noundef %1) #2 {
  %3 = alloca ptr, align 8
  %4 = alloca i32, align 4
  store ptr %0, ptr %3, align 8, !tbaa !8
  store i32 %1, ptr %4, align 4, !tbaa !10
  %5 = load ptr, ptr %3, align 8, !tbaa !8
  %6 = getelementptr inbounds nuw %struct.Vec_Int_t_, ptr %5, i32 0, i32 2
  %7 = load ptr, ptr %6, align 8, !tbaa !43
  %8 = load i32, ptr %4, align 4, !tbaa !10
  %9 = sext i32 %8 to i64
  %10 = getelementptr inbounds i32, ptr %7, i64 %9
  %11 = load i32, ptr %10, align 4, !tbaa !10
  ret i32 %11
}

; Function Attrs: inlinehint nounwind uwtable
define internal ptr @Gia_ManCo(ptr noundef %0, i32 noundef %1) #2 {
  %3 = alloca ptr, align 8
  %4 = alloca i32, align 4
  store ptr %0, ptr %3, align 8, !tbaa !3
  store i32 %1, ptr %4, align 4, !tbaa !10
  %5 = load ptr, ptr %3, align 8, !tbaa !3
  %6 = load ptr, ptr %3, align 8, !tbaa !3
  %7 = getelementptr inbounds nuw %struct.Gia_Man_t_, ptr %6, i32 0, i32 12
  %8 = load ptr, ptr %7, align 8, !tbaa !38
  %9 = load i32, ptr %4, align 4, !tbaa !10
  %10 = call i32 @Vec_IntEntry(ptr noundef %8, i32 noundef %9)
  %11 = call ptr @Gia_ManObj(ptr noundef %5, i32 noundef %10)
  ret ptr %11
}

; Function Attrs: inlinehint nounwind uwtable
define internal void @Vec_StrFree(ptr noundef %0) #2 {
  %2 = alloca ptr, align 8
  store ptr %0, ptr %2, align 8, !tbaa !67
  %3 = load ptr, ptr %2, align 8, !tbaa !67
  %4 = getelementptr inbounds nuw %struct.Vec_Str_t_, ptr %3, i32 0, i32 2
  %5 = load ptr, ptr %4, align 8, !tbaa !79
  %6 = icmp ne ptr %5, null
  br i1 %6, label %7, label %13

7:                                                ; preds = %1
  %8 = load ptr, ptr %2, align 8, !tbaa !67
  %9 = getelementptr inbounds nuw %struct.Vec_Str_t_, ptr %8, i32 0, i32 2
  %10 = load ptr, ptr %9, align 8, !tbaa !79
  call void @free(ptr noundef %10) #11
  %11 = load ptr, ptr %2, align 8, !tbaa !67
  %12 = getelementptr inbounds nuw %struct.Vec_Str_t_, ptr %11, i32 0, i32 2
  store ptr null, ptr %12, align 8, !tbaa !79
  br label %14

13:                                               ; preds = %1
  br label %14

14:                                               ; preds = %13, %7
  %15 = load ptr, ptr %2, align 8, !tbaa !67
  %16 = icmp ne ptr %15, null
  br i1 %16, label %17, label %19

17:                                               ; preds = %14
  %18 = load ptr, ptr %2, align 8, !tbaa !67
  call void @free(ptr noundef %18) #11
  store ptr null, ptr %2, align 8, !tbaa !67
  br label %20

19:                                               ; preds = %14
  br label %20

20:                                               ; preds = %19, %17
  ret void
}

; Function Attrs: inlinehint nounwind uwtable
define internal i32 @Abc_MinInt(i32 noundef %0, i32 noundef %1) #2 {
  %3 = alloca i32, align 4
  %4 = alloca i32, align 4
  store i32 %0, ptr %3, align 4, !tbaa !10
  store i32 %1, ptr %4, align 4, !tbaa !10
  %5 = load i32, ptr %3, align 4, !tbaa !10
  %6 = load i32, ptr %4, align 4, !tbaa !10
  %7 = icmp slt i32 %5, %6
  br i1 %7, label %8, label %10

8:                                                ; preds = %2
  %9 = load i32, ptr %3, align 4, !tbaa !10
  br label %12

10:                                               ; preds = %2
  %11 = load i32, ptr %4, align 4, !tbaa !10
  br label %12

12:                                               ; preds = %10, %8
  %13 = phi i32 [ %9, %8 ], [ %11, %10 ]
  ret i32 %13
}

; Function Attrs: inlinehint nounwind uwtable
define internal void @Gia_ObjFlipFaninC0(ptr noundef %0) #2 {
  %2 = alloca ptr, align 8
  store ptr %0, ptr %2, align 8, !tbaa !36
  %3 = load ptr, ptr %2, align 8, !tbaa !36
  %4 = load i64, ptr %3, align 4
  %5 = lshr i64 %4, 29
  %6 = and i64 %5, 1
  %7 = trunc i64 %6 to i32
  %8 = xor i32 %7, 1
  %9 = zext i32 %8 to i64
  %10 = load i64, ptr %3, align 4
  %11 = and i64 %9, 1
  %12 = shl i64 %11, 29
  %13 = and i64 %10, -536870913
  %14 = or i64 %13, %12
  store i64 %14, ptr %3, align 4
  ret void
}

; Function Attrs: inlinehint nounwind uwtable
define internal ptr @Gia_ManPo(ptr noundef %0, i32 noundef %1) #2 {
  %3 = alloca ptr, align 8
  %4 = alloca i32, align 4
  store ptr %0, ptr %3, align 8, !tbaa !3
  store i32 %1, ptr %4, align 4, !tbaa !10
  %5 = load ptr, ptr %3, align 8, !tbaa !3
  %6 = load i32, ptr %4, align 4, !tbaa !10
  %7 = call ptr @Gia_ManCo(ptr noundef %5, i32 noundef %6)
  ret ptr %7
}

; Function Attrs: inlinehint nounwind uwtable
define internal i32 @Vec_StrCountEntry(ptr noundef %0, i8 noundef signext %1) #2 {
  %3 = alloca ptr, align 8
  %4 = alloca i8, align 1
  %5 = alloca i32, align 4
  %6 = alloca i32, align 4
  store ptr %0, ptr %3, align 8, !tbaa !67
  store i8 %1, ptr %4, align 1, !tbaa !70
  call void @llvm.lifetime.start.p0(i64 4, ptr %5) #11
  call void @llvm.lifetime.start.p0(i64 4, ptr %6) #11
  store i32 0, ptr %6, align 4, !tbaa !10
  store i32 0, ptr %5, align 4, !tbaa !10
  br label %7

7:                                                ; preds = %28, %2
  %8 = load i32, ptr %5, align 4, !tbaa !10
  %9 = load ptr, ptr %3, align 8, !tbaa !67
  %10 = getelementptr inbounds nuw %struct.Vec_Str_t_, ptr %9, i32 0, i32 1
  %11 = load i32, ptr %10, align 4, !tbaa !86
  %12 = icmp slt i32 %8, %11
  br i1 %12, label %13, label %31

13:                                               ; preds = %7
  %14 = load ptr, ptr %3, align 8, !tbaa !67
  %15 = getelementptr inbounds nuw %struct.Vec_Str_t_, ptr %14, i32 0, i32 2
  %16 = load ptr, ptr %15, align 8, !tbaa !79
  %17 = load i32, ptr %5, align 4, !tbaa !10
  %18 = sext i32 %17 to i64
  %19 = getelementptr inbounds i8, ptr %16, i64 %18
  %20 = load i8, ptr %19, align 1, !tbaa !70
  %21 = sext i8 %20 to i32
  %22 = load i8, ptr %4, align 1, !tbaa !70
  %23 = sext i8 %22 to i32
  %24 = icmp eq i32 %21, %23
  %25 = zext i1 %24 to i32
  %26 = load i32, ptr %6, align 4, !tbaa !10
  %27 = add nsw i32 %26, %25
  store i32 %27, ptr %6, align 4, !tbaa !10
  br label %28

28:                                               ; preds = %13
  %29 = load i32, ptr %5, align 4, !tbaa !10
  %30 = add nsw i32 %29, 1
  store i32 %30, ptr %5, align 4, !tbaa !10
  br label %7, !llvm.loop !149

31:                                               ; preds = %7
  %32 = load i32, ptr %6, align 4, !tbaa !10
  call void @llvm.lifetime.end.p0(i64 4, ptr %6) #11
  call void @llvm.lifetime.end.p0(i64 4, ptr %5) #11
  ret i32 %32
}

; Function Attrs: nounwind uwtable
define ptr @Bmc_CollapseOneOld2(ptr noundef %0, i32 noundef %1, i32 noundef %2, i32 noundef %3, i32 noundef %4, i32 noundef %5) #0 {
  %7 = alloca ptr, align 8
  %8 = alloca ptr, align 8
  %9 = alloca i32, align 4
  %10 = alloca i32, align 4
  %11 = alloca i32, align 4
  %12 = alloca i32, align 4
  %13 = alloca i32, align 4
  %14 = alloca ptr, align 8
  %15 = alloca ptr, align 8
  %16 = alloca i32, align 4
  %17 = alloca i32, align 4
  %18 = alloca i32, align 4
  store ptr %0, ptr %8, align 8, !tbaa !3
  store i32 %1, ptr %9, align 4, !tbaa !10
  store i32 %2, ptr %10, align 4, !tbaa !10
  store i32 %3, ptr %11, align 4, !tbaa !10
  store i32 %4, ptr %12, align 4, !tbaa !10
  store i32 %5, ptr %13, align 4, !tbaa !10
  call void @llvm.lifetime.start.p0(i64 8, ptr %14) #11
  call void @llvm.lifetime.start.p0(i64 8, ptr %15) #11
  call void @llvm.lifetime.start.p0(i64 4, ptr %16) #11
  store i32 1000000000, ptr %16, align 4, !tbaa !10
  call void @llvm.lifetime.start.p0(i64 4, ptr %17) #11
  store i32 1000000000, ptr %17, align 4, !tbaa !10
  %19 = load ptr, ptr %8, align 8, !tbaa !3
  %20 = load i32, ptr %9, align 4, !tbaa !10
  %21 = load i32, ptr %10, align 4, !tbaa !10
  %22 = load i32, ptr %11, align 4, !tbaa !10
  %23 = load i32, ptr %12, align 4, !tbaa !10
  %24 = load i32, ptr %13, align 4, !tbaa !10
  %25 = call ptr @Bmc_CollapseOneInt2(ptr noundef %19, i32 noundef %20, i32 noundef %21, i32 noundef %22, i32 noundef %23, i32 noundef %24, i32 noundef 0)
  store ptr %25, ptr %14, align 8, !tbaa !67
  %26 = load ptr, ptr %14, align 8, !tbaa !67
  %27 = icmp ne ptr %26, null
  br i1 %27, label %28, label %31

28:                                               ; preds = %6
  %29 = load ptr, ptr %14, align 8, !tbaa !67
  %30 = call i32 @Vec_StrCountEntry(ptr noundef %29, i8 noundef signext 10)
  store i32 %30, ptr %16, align 4, !tbaa !10
  br label %31

31:                                               ; preds = %28, %6
  %32 = load ptr, ptr %8, align 8, !tbaa !3
  %33 = call ptr @Gia_ManPo(ptr noundef %32, i32 noundef 0)
  call void @Gia_ObjFlipFaninC0(ptr noundef %33)
  %34 = load ptr, ptr %8, align 8, !tbaa !3
  %35 = load i32, ptr %9, align 4, !tbaa !10
  %36 = load i32, ptr %16, align 4, !tbaa !10
  %37 = call i32 @Abc_MinInt(i32 noundef %35, i32 noundef %36)
  %38 = load i32, ptr %10, align 4, !tbaa !10
  %39 = load i32, ptr %11, align 4, !tbaa !10
  %40 = load i32, ptr %12, align 4, !tbaa !10
  %41 = load i32, ptr %13, align 4, !tbaa !10
  %42 = call ptr @Bmc_CollapseOneInt2(ptr noundef %34, i32 noundef %37, i32 noundef %38, i32 noundef %39, i32 noundef %40, i32 noundef %41, i32 noundef 1)
  store ptr %42, ptr %15, align 8, !tbaa !67
  %43 = load ptr, ptr %8, align 8, !tbaa !3
  %44 = call ptr @Gia_ManPo(ptr noundef %43, i32 noundef 0)
  call void @Gia_ObjFlipFaninC0(ptr noundef %44)
  %45 = load ptr, ptr %15, align 8, !tbaa !67
  %46 = icmp ne ptr %45, null
  br i1 %46, label %47, label %50

47:                                               ; preds = %31
  %48 = load ptr, ptr %15, align 8, !tbaa !67
  %49 = call i32 @Vec_StrCountEntry(ptr noundef %48, i8 noundef signext 10)
  store i32 %49, ptr %17, align 4, !tbaa !10
  br label %50

50:                                               ; preds = %47, %31
  %51 = load ptr, ptr %14, align 8, !tbaa !67
  %52 = icmp eq ptr %51, null
  br i1 %52, label %53, label %55

53:                                               ; preds = %50
  %54 = load ptr, ptr %15, align 8, !tbaa !67
  store ptr %54, ptr %7, align 8
  store i32 1, ptr %18, align 4
  br label %70

55:                                               ; preds = %50
  %56 = load ptr, ptr %15, align 8, !tbaa !67
  %57 = icmp eq ptr %56, null
  br i1 %57, label %58, label %60

58:                                               ; preds = %55
  %59 = load ptr, ptr %14, align 8, !tbaa !67
  store ptr %59, ptr %7, align 8
  store i32 1, ptr %18, align 4
  br label %70

60:                                               ; preds = %55
  %61 = load i32, ptr %16, align 4, !tbaa !10
  %62 = load i32, ptr %17, align 4, !tbaa !10
  %63 = icmp sle i32 %61, %62
  br i1 %63, label %64, label %67

64:                                               ; preds = %60
  %65 = load ptr, ptr %15, align 8, !tbaa !67
  call void @Vec_StrFree(ptr noundef %65)
  %66 = load ptr, ptr %14, align 8, !tbaa !67
  store ptr %66, ptr %7, align 8
  store i32 1, ptr %18, align 4
  br label %70

67:                                               ; preds = %60
  %68 = load ptr, ptr %14, align 8, !tbaa !67
  call void @Vec_StrFree(ptr noundef %68)
  %69 = load ptr, ptr %15, align 8, !tbaa !67
  store ptr %69, ptr %7, align 8
  store i32 1, ptr %18, align 4
  br label %70

70:                                               ; preds = %67, %64, %58, %53
  call void @llvm.lifetime.end.p0(i64 4, ptr %17) #11
  call void @llvm.lifetime.end.p0(i64 4, ptr %16) #11
  call void @llvm.lifetime.end.p0(i64 8, ptr %15) #11
  call void @llvm.lifetime.end.p0(i64 8, ptr %14) #11
  %71 = load ptr, ptr %7, align 8
  ret ptr %71
}