; Function Attrs: nounwind uwtable
define noundef ptr @Bmc_CollapseOneOld2(ptr noundef %0, i32 noundef %1, i32 noundef %2, i32 noundef %3, i32 noundef %4, i32 noundef %5) local_unnamed_addr #0 {
  %7 = tail call ptr @Bmc_CollapseOneInt2(ptr noundef %0, i32 noundef %1, i32 noundef %2, i32 noundef %3, i32 noundef %4, i32 poison, i32 noundef 0)
  %.not = icmp eq ptr %7, null
  br i1 %.not, label %Vec_StrCountEntry.exit, label %8

8:                                                ; preds = %6
  %9 = getelementptr inbounds nuw i8, ptr %7, i64 4
  %10 = load i32, ptr %9, align 4, !tbaa !77
  %11 = icmp sgt i32 %10, 0
  br i1 %11, label %.lr.ph.i, label %Vec_StrCountEntry.exit

.lr.ph.i:                                         ; preds = %8
  %12 = getelementptr inbounds nuw i8, ptr %7, i64 8
  %13 = load ptr, ptr %12, align 8, !tbaa !63
  %wide.trip.count.i = zext nneg i32 %10 to i64
  br label %14

14:                                               ; preds = %14, %.lr.ph.i
  %indvars.iv.i = phi i64 [ 0, %.lr.ph.i ], [ %indvars.iv.next.i, %14 ]
  %.09.i = phi i32 [ 0, %.lr.ph.i ], [ %19, %14 ]
  %15 = getelementptr inbounds nuw i8, ptr %13, i64 %indvars.iv.i
  %16 = load i8, ptr %15, align 1, !tbaa !69
  %17 = icmp eq i8 %16, 10
  %18 = zext i1 %17 to i32
  %19 = add nuw nsw i32 %.09.i, %18
  %indvars.iv.next.i = add nuw nsw i64 %indvars.iv.i, 1
  %exitcond.not.i = icmp eq i64 %indvars.iv.next.i, %wide.trip.count.i
  br i1 %exitcond.not.i, label %Vec_StrCountEntry.exit, label %14, !llvm.loop !134

Vec_StrCountEntry.exit:                           ; preds = %14, %8, %6
  %.029 = phi i32 [ 1000000000, %6 ], [ 0, %8 ], [ %19, %14 ]
  %20 = getelementptr i8, ptr %0, i64 32
  %.val = load ptr, ptr %20, align 8, !tbaa !39
  %21 = getelementptr i8, ptr %0, i64 72
  %.val36 = load ptr, ptr %21, align 8, !tbaa !41
  %22 = getelementptr i8, ptr %.val36, i64 8
  %.val36.val = load ptr, ptr %22, align 8, !tbaa !29
  %.val36.val.val = load i32, ptr %.val36.val, align 4, !tbaa !30
  %23 = sext i32 %.val36.val.val to i64
  %24 = getelementptr inbounds %struct.Gia_Obj_t_, ptr %.val, i64 %23
  %25 = load i64, ptr %24, align 4
  %26 = xor i64 %25, 536870912
  store i64 %26, ptr %24, align 4
  %27 = tail call noundef i32 @llvm.smin.i32(i32 %1, i32 %.029)
  %28 = tail call ptr @Bmc_CollapseOneInt2(ptr noundef %0, i32 noundef %27, i32 noundef %2, i32 noundef %3, i32 noundef %4, i32 poison, i32 noundef 1)
  %.val37 = load ptr, ptr %20, align 8, !tbaa !39
  %.val38 = load ptr, ptr %21, align 8, !tbaa !41
  %29 = getelementptr i8, ptr %.val38, i64 8
  %.val38.val = load ptr, ptr %29, align 8, !tbaa !29
  %.val38.val.val = load i32, ptr %.val38.val, align 4, !tbaa !30
  %30 = sext i32 %.val38.val.val to i64
  %31 = getelementptr inbounds %struct.Gia_Obj_t_, ptr %.val37, i64 %30
  %32 = load i64, ptr %31, align 4
  %33 = xor i64 %32, 536870912
  store i64 %33, ptr %31, align 4
  %.not34 = icmp eq ptr %28, null
  br i1 %.not34, label %.thread55, label %34

34:                                               ; preds = %Vec_StrCountEntry.exit
  %35 = getelementptr inbounds nuw i8, ptr %28, i64 4
  %36 = load i32, ptr %35, align 4, !tbaa !77
  %37 = icmp sgt i32 %36, 0
  br i1 %37, label %.lr.ph.i40, label %Vec_StrCountEntry.exit46.thread

.lr.ph.i40:                                       ; preds = %34
  %38 = getelementptr inbounds nuw i8, ptr %28, i64 8
  %39 = load ptr, ptr %38, align 8, !tbaa !63
  %wide.trip.count.i41 = zext nneg i32 %36 to i64
  br label %40

40:                                               ; preds = %40, %.lr.ph.i40
  %indvars.iv.i42 = phi i64 [ 0, %.lr.ph.i40 ], [ %indvars.iv.next.i44, %40 ]
  %.09.i43 = phi i32 [ 0, %.lr.ph.i40 ], [ %45, %40 ]
  %41 = getelementptr inbounds nuw i8, ptr %39, i64 %indvars.iv.i42
  %42 = load i8, ptr %41, align 1, !tbaa !69
  %43 = icmp eq i8 %42, 10
  %44 = zext i1 %43 to i32
  %45 = add nuw nsw i32 %.09.i43, %44
  %indvars.iv.next.i44 = add nuw nsw i64 %indvars.iv.i42, 1
  %exitcond.not.i45 = icmp eq i64 %indvars.iv.next.i44, %wide.trip.count.i41
  br i1 %exitcond.not.i45, label %Vec_StrCountEntry.exit46, label %40, !llvm.loop !134

Vec_StrCountEntry.exit46:                         ; preds = %40
  br i1 %.not, label %.thread55, label %.thread

Vec_StrCountEntry.exit46.thread:                  ; preds = %34
  br i1 %.not, label %.thread55, label %.thread

.thread:                                          ; preds = %Vec_StrCountEntry.exit46, %Vec_StrCountEntry.exit46.thread
  %.05052 = phi i32 [ 0, %Vec_StrCountEntry.exit46.thread ], [ %45, %Vec_StrCountEntry.exit46 ]
  %.not35 = icmp sgt i32 %.029, %.05052
  br i1 %.not35, label %49, label %46

46:                                               ; preds = %.thread
  %47 = getelementptr inbounds nuw i8, ptr %28, i64 8
  %48 = load ptr, ptr %47, align 8, !tbaa !63
  %.not.i = icmp eq ptr %48, null
  br i1 %.not.i, label %.thread55.sink.split, label %.thread55.sink.split.sink.split

49:                                               ; preds = %.thread
  %50 = getelementptr inbounds nuw i8, ptr %7, i64 8
  %51 = load ptr, ptr %50, align 8, !tbaa !63
  %.not.i47 = icmp eq ptr %51, null
  br i1 %.not.i47, label %.thread55.sink.split, label %.thread55.sink.split.sink.split

.thread55.sink.split.sink.split:                  ; preds = %49, %46
  %.sink60 = phi ptr [ %48, %46 ], [ %51, %49 ]
  %.sink.ph = phi ptr [ %28, %46 ], [ %7, %49 ]
  %.030.ph.ph = phi ptr [ %7, %46 ], [ %28, %49 ]
  tail call void @free(ptr noundef nonnull %.sink60) #16
  br label %.thread55.sink.split

.thread55.sink.split:                             ; preds = %.thread55.sink.split.sink.split, %49, %46
  %.sink = phi ptr [ %28, %46 ], [ %7, %49 ], [ %.sink.ph, %.thread55.sink.split.sink.split ]
  %.030.ph = phi ptr [ %7, %46 ], [ %28, %49 ], [ %.030.ph.ph, %.thread55.sink.split.sink.split ]
  tail call void @free(ptr noundef nonnull %.sink) #16
  br label %.thread55

.thread55:                                        ; preds = %.thread55.sink.split, %Vec_StrCountEntry.exit, %Vec_StrCountEntry.exit46, %Vec_StrCountEntry.exit46.thread
  %.030 = phi ptr [ %28, %Vec_StrCountEntry.exit46 ], [ %28, %Vec_StrCountEntry.exit46.thread ], [ %7, %Vec_StrCountEntry.exit ], [ %.030.ph, %.thread55.sink.split ]
  ret ptr %.030
}